target datalayout = "e-m:e-p270:32:32-p271:32:32-p272:64:64-i64:64-i128:128-f80:128-n8:16:32:64-S128"
target triple = "x86_64-pc-linux-gnu"

%"class.rocksdb::Cleanable" = type { %"struct.rocksdb::Cleanable::Cleanup" }
%"struct.rocksdb::Cleanable::Cleanup" = type { ptr, ptr, ptr, ptr }
%"class.rocksdb::SharedCleanablePtr" = type { ptr }
%"struct.rocksdb::SharedCleanablePtr::Impl" = type <{ %"class.rocksdb::Cleanable", %"struct.std::atomic", [4 x i8] }>
%"struct.std::atomic" = type { %"struct.std::__atomic_base" }
%"struct.std::__atomic_base" = type { i32 }

; Function Attrs: inlinehint mustprogress uwtable
define linkonce_odr void @_ZN7rocksdb9Cleanable9DoCleanupEv(ptr noundef nonnull align 8 dereferenceable(32) %0) #1 comdat align 2 {
  %2 = alloca ptr, align 8
  %3 = alloca ptr, align 8
  %4 = alloca ptr, align 8
  store ptr %0, ptr %2, align 8, !tbaa !4
  %5 = load ptr, ptr %2, align 8
  %6 = getelementptr inbounds nuw %"class.rocksdb::Cleanable", ptr %5, i32 0, i32 0
  %7 = getelementptr inbounds nuw %"struct.rocksdb::Cleanable::Cleanup", ptr %6, i32 0, i32 0
  %8 = load ptr, ptr %7, align 8, !tbaa !9
  %9 = icmp ne ptr %8, null
  br i1 %9, label %10, label %46

10:                                               ; preds = %1
  %11 = getelementptr inbounds nuw %"class.rocksdb::Cleanable", ptr %5, i32 0, i32 0
  %12 = getelementptr inbounds nuw %"struct.rocksdb::Cleanable::Cleanup", ptr %11, i32 0, i32 0
  %13 = load ptr, ptr %12, align 8, !tbaa !9
  %14 = getelementptr inbounds nuw %"class.rocksdb::Cleanable", ptr %5, i32 0, i32 0
  %15 = getelementptr inbounds nuw %"struct.rocksdb::Cleanable::Cleanup", ptr %14, i32 0, i32 1
  %16 = load ptr, ptr %15, align 8, !tbaa !14
  %17 = getelementptr inbounds nuw %"class.rocksdb::Cleanable", ptr %5, i32 0, i32 0
  %18 = getelementptr inbounds nuw %"struct.rocksdb::Cleanable::Cleanup", ptr %17, i32 0, i32 2
  %19 = load ptr, ptr %18, align 8, !tbaa !15
  call void %13(ptr noundef %16, ptr noundef %19)
  call void @llvm.lifetime.start.p0(i64 8, ptr %3) #11
  %20 = getelementptr inbounds nuw %"class.rocksdb::Cleanable", ptr %5, i32 0, i32 0
  %21 = getelementptr inbounds nuw %"struct.rocksdb::Cleanable::Cleanup", ptr %20, i32 0, i32 3
  %22 = load ptr, ptr %21, align 8, !tbaa !13
  store ptr %22, ptr %3, align 8, !tbaa !16
  br label %23

23:                                               ; preds = %43, %10
  %24 = load ptr, ptr %3, align 8, !tbaa !16
  %25 = icmp ne ptr %24, null
  br i1 %25, label %27, label %26

26:                                               ; preds = %23
  call void @llvm.lifetime.end.p0(i64 8, ptr %3) #11
  br label %45

27:                                               ; preds = %23
  %28 = load ptr, ptr %3, align 8, !tbaa !16
  %29 = getelementptr inbounds nuw %"struct.rocksdb::Cleanable::Cleanup", ptr %28, i32 0, i32 0
  %30 = load ptr, ptr %29, align 8, !tbaa !17
  %31 = load ptr, ptr %3, align 8, !tbaa !16
  %32 = getelementptr inbounds nuw %"struct.rocksdb::Cleanable::Cleanup", ptr %31, i32 0, i32 1
  %33 = load ptr, ptr %32, align 8, !tbaa !18
  %34 = load ptr, ptr %3, align 8, !tbaa !16
  %35 = getelementptr inbounds nuw %"struct.rocksdb::Cleanable::Cleanup", ptr %34, i32 0, i32 2
  %36 = load ptr, ptr %35, align 8, !tbaa !19
  call void %30(ptr noundef %33, ptr noundef %36)
  call void @llvm.lifetime.start.p0(i64 8, ptr %4) #11
  %37 = load ptr, ptr %3, align 8, !tbaa !16
  %38 = getelementptr inbounds nuw %"struct.rocksdb::Cleanable::Cleanup", ptr %37, i32 0, i32 3
  %39 = load ptr, ptr %38, align 8, !tbaa !20
  store ptr %39, ptr %4, align 8, !tbaa !16
  %40 = load ptr, ptr %3, align 8, !tbaa !16
  %41 = icmp eq ptr %40, null
  br i1 %41, label %43, label %42

42:                                               ; preds = %27
  call void @_ZdlPvm(ptr noundef %40, i64 noundef 32) #12
  br label %43

43:                                               ; preds = %42, %27
  %44 = load ptr, ptr %4, align 8, !tbaa !16
  store ptr %44, ptr %3, align 8, !tbaa !16
  call void @llvm.lifetime.end.p0(i64 8, ptr %4) #11
  br label %23, !llvm.loop !21

45:                                               ; preds = %26
  br label %46

46:                                               ; preds = %45, %1
  ret void
}

; Function Attrs: mustprogress nounwind uwtable
define void @_ZN7rocksdb9CleanableD2Ev(ptr noundef nonnull align 8 dereferenceable(32) %0) unnamed_addr #0 align 2 personality ptr @__gxx_personality_v0 {
  %2 = alloca ptr, align 8
  store ptr %0, ptr %2, align 8, !tbaa !4
  %3 = load ptr, ptr %2, align 8
  invoke void @_ZN7rocksdb9Cleanable9DoCleanupEv(ptr noundef nonnull align 8 dereferenceable(32) %3)
          to label %4 unwind label %5

4:                                                ; preds = %1
  ret void

5:                                                ; preds = %1
  %6 = landingpad { ptr, i32 }
          catch ptr null
  %7 = extractvalue { ptr, i32 } %6, 0
  call void @__clang_call_terminate(ptr %7) #13
  unreachable
}

; Function Attrs: alwaysinline mustprogress nounwind uwtable
define linkonce_odr noundef i32 @_ZNSt13__atomic_baseIjE9fetch_subEjSt12memory_order(ptr noundef nonnull align 4 dereferenceable(4) %0, i32 noundef %1, i32 noundef %2) #10 comdat align 2 {
  %4 = alloca ptr, align 8
  %5 = alloca i32, align 4
  %6 = alloca i32, align 4
  %7 = alloca i32, align 4
  %8 = alloca i32, align 4
  store ptr %0, ptr %4, align 8, !tbaa !32
  store i32 %1, ptr %5, align 4, !tbaa !34
  store i32 %2, ptr %6, align 4, !tbaa !36
  %9 = load ptr, ptr %4, align 8
  %10 = getelementptr inbounds nuw %"struct.std::__atomic_base", ptr %9, i32 0, i32 0
  %11 = load i32, ptr %6, align 4, !tbaa !36
  %12 = load i32, ptr %5, align 4, !tbaa !34
  store i32 %12, ptr %7, align 4, !tbaa !34
  switch i32 %11, label %13 [
    i32 1, label %16
    i32 2, label %16
    i32 3, label %19
    i32 4, label %22
    i32 5, label %25
  ]

13:                                               ; preds = %3
  %14 = load i32, ptr %7, align 4
  %15 = atomicrmw sub ptr %10, i32 %14 monotonic, align 4
  store i32 %15, ptr %8, align 4
  br label %28

16:                                               ; preds = %3, %3
  %17 = load i32, ptr %7, align 4
  %18 = atomicrmw sub ptr %10, i32 %17 acquire, align 4
  store i32 %18, ptr %8, align 4
  br label %28

19:                                               ; preds = %3
  %20 = load i32, ptr %7, align 4
  %21 = atomicrmw sub ptr %10, i32 %20 release, align 4
  store i32 %21, ptr %8, align 4
  br label %28

22:                                               ; preds = %3
  %23 = load i32, ptr %7, align 4
  %24 = atomicrmw sub ptr %10, i32 %23 acq_rel, align 4
  store i32 %24, ptr %8, align 4
  br label %28

25:                                               ; preds = %3
  %26 = load i32, ptr %7, align 4
  %27 = atomicrmw sub ptr %10, i32 %26 seq_cst, align 4
  store i32 %27, ptr %8, align 4
  br label %28

28:                                               ; preds = %25, %22, %19, %16, %13
  %29 = load i32, ptr %8, align 4, !tbaa !34
  ret i32 %29
}

; Function Attrs: mustprogress nounwind uwtable
define linkonce_odr void @_ZN7rocksdb18SharedCleanablePtr4Impl5UnrefEv(ptr noundef nonnull align 8 dereferenceable(36) %0) #0 comdat align 2 {
  %2 = alloca ptr, align 8
  store ptr %0, ptr %2, align 8, !tbaa !31
  %3 = load ptr, ptr %2, align 8
  %4 = getelementptr inbounds nuw %"struct.rocksdb::SharedCleanablePtr::Impl", ptr %3, i32 0, i32 1
  %5 = call noundef i32 @_ZNSt13__atomic_baseIjE9fetch_subEjSt12memory_order(ptr noundef nonnull align 4 dereferenceable(4) %4, i32 noundef 1, i32 noundef 0) #11
  %6 = icmp eq i32 %5, 1
  br i1 %6, label %7, label %11

7:                                                ; preds = %1
  %8 = icmp eq ptr %3, null
  br i1 %8, label %10, label %9

9:                                                ; preds = %7
  call void @_ZN7rocksdb9CleanableD2Ev(ptr noundef nonnull align 8 dereferenceable(36) %3) #11
  call void @_ZdlPvm(ptr noundef %3, i64 noundef 40) #12
  br label %10

10:                                               ; preds = %9, %7
  br label %11

11:                                               ; preds = %10, %1
  ret void
}

; Function Attrs: mustprogress uwtable
define void @_ZN7rocksdb18SharedCleanablePtr5ResetEv(ptr noundef nonnull align 8 dereferenceable(8) %0) #4 align 2 {
  %2 = alloca ptr, align 8
  store ptr %0, ptr %2, align 8, !tbaa !26
  %3 = load ptr, ptr %2, align 8
  %4 = getelementptr inbounds nuw %"class.rocksdb::SharedCleanablePtr", ptr %3, i32 0, i32 0
  %5 = load ptr, ptr %4, align 8, !tbaa !28
  %6 = icmp ne ptr %5, null
  br i1 %6, label %7, label %11

7:                                                ; preds = %1
  %8 = getelementptr inbounds nuw %"class.rocksdb::SharedCleanablePtr", ptr %3, i32 0, i32 0
  %9 = load ptr, ptr %8, align 8, !tbaa !28
  call void @_ZN7rocksdb18SharedCleanablePtr4Impl5UnrefEv(ptr noundef nonnull align 8 dereferenceable(36) %9)
  %10 = getelementptr inbounds nuw %"class.rocksdb::SharedCleanablePtr", ptr %3, i32 0, i32 0
  store ptr null, ptr %10, align 8, !tbaa !28
  br label %11

11:                                               ; preds = %7, %1
  ret void
}